; Function Attrs: mustprogress uwtable
define void @_ZNK4pkpy3StrplEPKc(ptr dead_on_unwind noalias writable sret(%"struct.pkpy::Str") align 8 %0, ptr nocapture noundef nonnull readonly align 8 dereferenceable(32) %1, ptr noundef %2) local_unnamed_addr #3 align 2 personality ptr @__gxx_personality_v0 {
  %4 = alloca %"struct.pkpy::Str", align 8
  call void @_ZN4pkpy3StrC1EPKc(ptr noundef nonnull align 8 dereferenceable(32) %4, ptr noundef %2)
  call void @llvm.experimental.noalias.scope.decl(metadata !16)
  %5 = load i32, ptr %1, align 8, !noalias !16
  %6 = load i32, ptr %4, align 8, !noalias !16
  %7 = add nsw i32 %6, %5
  %8 = getelementptr inbounds i8, ptr %1, i64 4
  %9 = load i8, ptr %8, align 4, !noalias !16
  %10 = trunc i8 %9 to i1
  %11 = getelementptr inbounds i8, ptr %4, i64 4
  %12 = load i8, ptr %11, align 4, !noalias !16
  %13 = trunc i8 %12 to i1
  %14 = select i1 %10, i1 %13, i1 false
  invoke void @_ZN4pkpy3StrC1Eib(ptr noundef nonnull align 8 dereferenceable(32) %0, i32 noundef %7, i1 noundef zeroext %14)
          to label %15 unwind label %34

15:                                               ; preds = %3
  %16 = getelementptr inbounds i8, ptr %0, i64 8
  %17 = load ptr, ptr %16, align 8, !alias.scope !16
  %18 = getelementptr inbounds i8, ptr %1, i64 8
  %19 = load ptr, ptr %18, align 8, !noalias !16
  %20 = load i32, ptr %1, align 8, !noalias !16
  %21 = sext i32 %20 to i64
  call void @llvm.memcpy.p0.p0.i64(ptr align 1 %17, ptr align 1 %19, i64 %21, i1 false)
  %22 = load ptr, ptr %16, align 8, !alias.scope !16
  %23 = load i32, ptr %1, align 8, !noalias !16
  %24 = sext i32 %23 to i64
  %25 = getelementptr inbounds i8, ptr %22, i64 %24
  %26 = getelementptr inbounds i8, ptr %4, i64 8
  %27 = load ptr, ptr %26, align 8, !noalias !16
  %28 = load i32, ptr %4, align 8, !noalias !16
  %29 = sext i32 %28 to i64
  call void @llvm.memcpy.p0.p0.i64(ptr align 1 %25, ptr align 1 %27, i64 %29, i1 false)
  %30 = load ptr, ptr %16, align 8, !alias.scope !16
  %31 = load i32, ptr %0, align 8, !alias.scope !16
  %32 = sext i32 %31 to i64
  %33 = getelementptr inbounds i8, ptr %30, i64 %32
  store i8 0, ptr %33, align 1
  call void @_ZN4pkpy3StrD1Ev(ptr noundef nonnull align 8 dereferenceable(32) %4) #23
  ret void

34:                                               ; preds = %3
  %35 = landingpad { ptr, i32 }
          cleanup
  call void @_ZN4pkpy3StrD1Ev(ptr noundef nonnull align 8 dereferenceable(32) %4) #23
  resume { ptr, i32 } %35
}